target datalayout = "e-m:e-p270:32:32-p271:32:32-p272:64:64-i64:64-i128:128-f80:128-n8:16:32:64-S128"
target triple = "x86_64-pc-linux-gnu"

%"class.icu_77::RuleBasedBreakIterator::DictionaryCache" = type <{ ptr, %"class.icu_77::UVector32", i32, i32, i32, i32, i32, [4 x i8] }>
%"class.icu_77::UVector32" = type { %"class.icu_77::UObject", i32, i32, i32, ptr }
%"class.icu_77::UObject" = type { ptr }

; Function Attrs: mustprogress uwtable
define void @_ZN6icu_7722RuleBasedBreakIterator15DictionaryCacheC2EPS0_R10UErrorCode(ptr noundef nonnull align 8 dereferenceable(60) %0, ptr noundef %1, ptr noundef nonnull align 4 dereferenceable(4) %2) unnamed_addr #0 align 2 {
  %4 = alloca ptr, align 8
  %5 = alloca ptr, align 8
  %6 = alloca ptr, align 8
  store ptr %0, ptr %4, align 8, !tbaa !3
  store ptr %1, ptr %5, align 8, !tbaa !8
  store ptr %2, ptr %6, align 8, !tbaa !10
  %7 = load ptr, ptr %4, align 8
  %8 = getelementptr inbounds nuw %"class.icu_77::RuleBasedBreakIterator::DictionaryCache", ptr %7, i32 0, i32 0
  %9 = load ptr, ptr %5, align 8, !tbaa !8
  store ptr %9, ptr %8, align 8, !tbaa !11
  %10 = getelementptr inbounds nuw %"class.icu_77::RuleBasedBreakIterator::DictionaryCache", ptr %7, i32 0, i32 1
  %11 = load ptr, ptr %6, align 8, !tbaa !10
  call void @_ZN6icu_779UVector32C1ER10UErrorCode(ptr noundef nonnull align 8 dereferenceable(32) %10, ptr noundef nonnull align 4 dereferenceable(4) %11)
  %12 = getelementptr inbounds nuw %"class.icu_77::RuleBasedBreakIterator::DictionaryCache", ptr %7, i32 0, i32 2
  store i32 -1, ptr %12, align 8, !tbaa !17
  %13 = getelementptr inbounds nuw %"class.icu_77::RuleBasedBreakIterator::DictionaryCache", ptr %7, i32 0, i32 3
  store i32 0, ptr %13, align 4, !tbaa !18
  %14 = getelementptr inbounds nuw %"class.icu_77::RuleBasedBreakIterator::DictionaryCache", ptr %7, i32 0, i32 4
  store i32 0, ptr %14, align 8, !tbaa !19
  %15 = getelementptr inbounds nuw %"class.icu_77::RuleBasedBreakIterator::DictionaryCache", ptr %7, i32 0, i32 5
  store i32 0, ptr %15, align 4, !tbaa !20
  %16 = getelementptr inbounds nuw %"class.icu_77::RuleBasedBreakIterator::DictionaryCache", ptr %7, i32 0, i32 6
  store i32 0, ptr %16, align 8, !tbaa !21
  ret void
}