; Function Attrs: mustprogress uwtable
define void @_ZN6icu_7722RuleBasedBreakIterator15DictionaryCacheC2EPS0_R10UErrorCode(ptr noundef nonnull align 8 dereferenceable(60) initializes((0, 8)) %0, ptr noundef %1, ptr noundef nonnull align 4 dereferenceable(4) %2) unnamed_addr #0 align 2 {
  store ptr %1, ptr %0, align 8, !tbaa !3
  %4 = getelementptr inbounds nuw i8, ptr %0, i64 8
  tail call void @_ZN6icu_779UVector32C1ER10UErrorCode(ptr noundef nonnull align 8 dereferenceable(32) %4, ptr noundef nonnull align 4 dereferenceable(4) %2)
  %5 = getelementptr inbounds nuw i8, ptr %0, i64 40
  store i32 -1, ptr %5, align 8, !tbaa !13
  %6 = getelementptr inbounds nuw i8, ptr %0, i64 44
  tail call void @llvm.memset.p0.i64(ptr noundef nonnull align 4 dereferenceable(16) %6, i8 0, i64 16, i1 false)
  ret void
}